; Function Attrs: mustprogress uwtable
define hidden void @_ZN5osgeo4proj3crs11CompoundCRSC2ERKS2_(ptr noundef nonnull align 8 dereferenceable(80) %0, ptr noundef nonnull align 8 dereferenceable(80) %1) unnamed_addr #6 align 2 personality ptr @__gxx_personality_v0 {
  tail call void @_ZN5osgeo4proj6common11ObjectUsageC2ERKS2_(ptr noundef nonnull align 8 dereferenceable(48) %0, ptr noundef nonnull align 8 dereferenceable(48) %1)
  %3 = getelementptr inbounds i8, ptr %0, i64 48
  store ptr getelementptr inbounds inrange(-16, 48) ({ [8 x ptr], [5 x ptr], [5 x ptr], [5 x ptr] }, ptr @_ZTVN5osgeo4proj3crs3CRSE, i64 0, i32 0, i64 2), ptr %0, align 8
  %4 = getelementptr inbounds i8, ptr %0, i64 16
  store ptr getelementptr inbounds inrange(-16, 24) ({ [8 x ptr], [5 x ptr], [5 x ptr], [5 x ptr] }, ptr @_ZTVN5osgeo4proj3crs3CRSE, i64 0, i32 1, i64 2), ptr %4, align 8
  %5 = getelementptr inbounds i8, ptr %0, i64 24
  store ptr getelementptr inbounds inrange(-16, 24) ({ [8 x ptr], [5 x ptr], [5 x ptr], [5 x ptr] }, ptr @_ZTVN5osgeo4proj3crs3CRSE, i64 0, i32 2, i64 2), ptr %5, align 8
  store ptr getelementptr inbounds inrange(-16, 24) ({ [8 x ptr], [5 x ptr], [5 x ptr], [5 x ptr] }, ptr @_ZTVN5osgeo4proj3crs3CRSE, i64 0, i32 3, i64 2), ptr %3, align 8
  %6 = getelementptr inbounds i8, ptr %0, i64 56
  %7 = getelementptr inbounds i8, ptr %1, i64 56
  %8 = load ptr, ptr %7, align 8
  invoke void @_ZN5osgeo4proj8internal11make_uniqueINS0_3crs3CRS7PrivateEJRS5_EEESt10unique_ptrIT_St14default_deleteIS8_EEDpOT0_(ptr dead_on_unwind nonnull writable sret(%"class.std::unique_ptr.26") align 8 %6, ptr noundef nonnull align 8 dereferenceable(72) %8)
          to label %_ZN5osgeo4proj3crs3CRSC2ERKS2_.exit unwind label %9

common.resume:                                    ; preds = %16, %9
  %common.resume.op = phi { ptr, i32 } [ %10, %9 ], [ %17, %16 ]
  resume { ptr, i32 } %common.resume.op

9:                                                ; preds = %2
  %10 = landingpad { ptr, i32 }
          cleanup
  tail call void @_ZN5osgeo4proj2io15IJSONExportableD2Ev(ptr noundef nonnull align 8 dereferenceable(8) %3) #37
  tail call void @_ZN5osgeo4proj6common11ObjectUsageD2Ev(ptr noundef nonnull align 8 dereferenceable(48) %0) #37
  br label %common.resume

_ZN5osgeo4proj3crs3CRSC2ERKS2_.exit:              ; preds = %2
  %11 = getelementptr inbounds i8, ptr %0, i64 64
  store ptr getelementptr inbounds inrange(-16, 72) ({ [11 x ptr], [5 x ptr], [5 x ptr], [5 x ptr], [5 x ptr] }, ptr @_ZTVN5osgeo4proj3crs11CompoundCRSE, i64 0, i32 0, i64 2), ptr %0, align 8
  store ptr getelementptr inbounds inrange(-16, 24) ({ [11 x ptr], [5 x ptr], [5 x ptr], [5 x ptr], [5 x ptr] }, ptr @_ZTVN5osgeo4proj3crs11CompoundCRSE, i64 0, i32 1, i64 2), ptr %4, align 8
  store ptr getelementptr inbounds inrange(-16, 24) ({ [11 x ptr], [5 x ptr], [5 x ptr], [5 x ptr], [5 x ptr] }, ptr @_ZTVN5osgeo4proj3crs11CompoundCRSE, i64 0, i32 2, i64 2), ptr %5, align 8
  store ptr getelementptr inbounds inrange(-16, 24) ({ [11 x ptr], [5 x ptr], [5 x ptr], [5 x ptr], [5 x ptr] }, ptr @_ZTVN5osgeo4proj3crs11CompoundCRSE, i64 0, i32 3, i64 2), ptr %3, align 8
  store ptr getelementptr inbounds inrange(-16, 24) ({ [11 x ptr], [5 x ptr], [5 x ptr], [5 x ptr], [5 x ptr] }, ptr @_ZTVN5osgeo4proj3crs11CompoundCRSE, i64 0, i32 4, i64 2), ptr %11, align 8
  %12 = getelementptr inbounds i8, ptr %0, i64 72
  %13 = getelementptr inbounds i8, ptr %1, i64 72
  %14 = load ptr, ptr %13, align 8
  invoke void @_ZN5osgeo4proj8internal11make_uniqueINS0_3crs11CompoundCRS7PrivateEJRS5_EEESt10unique_ptrIT_St14default_deleteIS8_EEDpOT0_(ptr dead_on_unwind nonnull writable sret(%"class.std::unique_ptr.246") align 8 %12, ptr noundef nonnull align 8 dereferenceable(24) %14)
          to label %15 unwind label %16

15:                                               ; preds = %_ZN5osgeo4proj3crs3CRSC2ERKS2_.exit
  ret void

16:                                               ; preds = %_ZN5osgeo4proj3crs3CRSC2ERKS2_.exit
  %17 = landingpad { ptr, i32 }
          cleanup
  tail call void @_ZN5osgeo4proj2io21IPROJStringExportableD2Ev(ptr noundef nonnull align 8 dereferenceable(8) %11) #37
  tail call void @_ZN5osgeo4proj3crs3CRSD2Ev(ptr noundef nonnull align 8 dereferenceable(64) %0) #37
  br label %common.resume
}